; Function Attrs: mustprogress uwtable
define dso_local void @_ZN14cmCacheManager10CacheEntry8SetValueE7cmValue(ptr noundef nonnull align 8 dereferenceable(97) %0, ptr %1) local_unnamed_addr #5 align 2 {
  %.not = icmp eq ptr %1, null
  br i1 %.not, label %5, label %3

3:                                                ; preds = %2
  tail call void @_ZNSt7__cxx1112basic_stringIcSt11char_traitsIcESaIcEE9_M_assignERKS4_(ptr noundef nonnull align 8 dereferenceable(32) %0, ptr noundef nonnull align 8 dereferenceable(32) %1)
  %4 = getelementptr inbounds nuw i8, ptr %0, i64 96
  store i8 1, ptr %4, align 8, !tbaa !103
  br label %8

5:                                                ; preds = %2
  %6 = getelementptr inbounds nuw i8, ptr %0, i64 8
  store i64 0, ptr %6, align 8, !tbaa !15
  %7 = load ptr, ptr %0, align 8, !tbaa !7
  store i8 0, ptr %7, align 1, !tbaa !35
  br label %8

8:                                                ; preds = %5, %3
  ret void
}